target datalayout = "e-m:e-p270:32:32-p271:32:32-p272:64:64-i64:64-i128:128-f80:128-n8:16:32:64-S128"
target triple = "x86_64-pc-linux-gnu"

%struct.AVFilterContext = type { ptr, ptr, ptr, ptr, ptr, i32, ptr, ptr, i32, ptr, ptr, i32, i32, ptr, ptr, ptr, ptr, i32, ptr, i32, i32 }
%struct.LutContext = type { ptr, [4 x [65536 x i16]], [4 x ptr], [4 x ptr], i32, i32, [7 x double], i32, i32, i32, i32, i32 }
%struct.thread_data = type { ptr, ptr, i32, i32 }
%struct.AVChannelLayout = type { i32, i32, %union.anon.1, ptr }
%union.anon.1 = type { i64 }
%struct.AVRational = type { i32, i32 }
%struct.AVFrame = type { [8 x ptr], [8 x i32], ptr, i32, i32, i32, i32, i32, %struct.AVRational, i64, i64, %struct.AVRational, i32, ptr, i32, i32, [8 x ptr], ptr, i32, ptr, i32, i32, i32, i32, i32, i32, i32, i64, ptr, i32, ptr, ptr, i64, i64, i64, i64, ptr, %struct.AVChannelLayout, i64 }

; Function Attrs: nounwind uwtable
define internal i32 @lut_planar_8bits(ptr noundef %0, ptr noundef %1, i32 noundef %2, i32 noundef %3) #1 {
  %5 = alloca ptr, align 8
  %6 = alloca ptr, align 8
  %7 = alloca i32, align 4
  %8 = alloca i32, align 4
  %9 = alloca ptr, align 8
  %10 = alloca ptr, align 8
  %11 = alloca i32, align 4
  %12 = alloca i32, align 4
  %13 = alloca i32, align 4
  %14 = alloca ptr, align 8
  %15 = alloca ptr, align 8
  %16 = alloca ptr, align 8
  %17 = alloca ptr, align 8
  %18 = alloca i32, align 4
  %19 = alloca i32, align 4
  %20 = alloca i32, align 4
  %21 = alloca i32, align 4
  %22 = alloca ptr, align 8
  %23 = alloca i32, align 4
  %24 = alloca i32, align 4
  %25 = alloca i32, align 4
  %26 = alloca i32, align 4
  store ptr %0, ptr %5, align 8, !tbaa !4
  store ptr %1, ptr %6, align 8, !tbaa !34
  store i32 %2, ptr %7, align 4, !tbaa !24
  store i32 %3, ptr %8, align 4, !tbaa !24
  call void @llvm.lifetime.start.p0(i64 8, ptr %9) #8
  %27 = load ptr, ptr %5, align 8, !tbaa !4
  %28 = getelementptr inbounds nuw %struct.AVFilterContext, ptr %27, i32 0, i32 9
  %29 = load ptr, ptr %28, align 8, !tbaa !9
  store ptr %29, ptr %9, align 8, !tbaa !22
  call void @llvm.lifetime.start.p0(i64 8, ptr %10) #8
  %30 = load ptr, ptr %6, align 8, !tbaa !34
  store ptr %30, ptr %10, align 8, !tbaa !85
  call void @llvm.lifetime.start.p0(i64 4, ptr %11) #8
  call void @llvm.lifetime.start.p0(i64 4, ptr %12) #8
  call void @llvm.lifetime.start.p0(i64 4, ptr %13) #8
  call void @llvm.lifetime.start.p0(i64 8, ptr %14) #8
  %31 = load ptr, ptr %10, align 8, !tbaa !85
  %32 = getelementptr inbounds nuw %struct.thread_data, ptr %31, i32 0, i32 0
  %33 = load ptr, ptr %32, align 8, !tbaa !54
  store ptr %33, ptr %14, align 8, !tbaa !39
  call void @llvm.lifetime.start.p0(i64 8, ptr %15) #8
  %34 = load ptr, ptr %10, align 8, !tbaa !85
  %35 = getelementptr inbounds nuw %struct.thread_data, ptr %34, i32 0, i32 1
  %36 = load ptr, ptr %35, align 8, !tbaa !56
  store ptr %36, ptr %15, align 8, !tbaa !39
  call void @llvm.lifetime.start.p0(i64 8, ptr %16) #8
  call void @llvm.lifetime.start.p0(i64 8, ptr %17) #8
  store i32 0, ptr %13, align 4, !tbaa !24
  br label %37

37:                                               ; preds = %219, %4
  %38 = load i32, ptr %13, align 4, !tbaa !24
  %39 = icmp slt i32 %38, 4
  br i1 %39, label %40, label %56

40:                                               ; preds = %37
  %41 = load ptr, ptr %14, align 8, !tbaa !39
  %42 = getelementptr inbounds nuw %struct.AVFrame, ptr %41, i32 0, i32 0
  %43 = load i32, ptr %13, align 4, !tbaa !24
  %44 = sext i32 %43 to i64
  %45 = getelementptr inbounds [8 x ptr], ptr %42, i64 0, i64 %44
  %46 = load ptr, ptr %45, align 8, !tbaa !35
  %47 = icmp ne ptr %46, null
  br i1 %47, label %48, label %56

48:                                               ; preds = %40
  %49 = load ptr, ptr %14, align 8, !tbaa !39
  %50 = getelementptr inbounds nuw %struct.AVFrame, ptr %49, i32 0, i32 1
  %51 = load i32, ptr %13, align 4, !tbaa !24
  %52 = sext i32 %51 to i64
  %53 = getelementptr inbounds [8 x i32], ptr %50, i64 0, i64 %52
  %54 = load i32, ptr %53, align 4, !tbaa !24
  %55 = icmp ne i32 %54, 0
  br label %56

56:                                               ; preds = %48, %40, %37
  %57 = phi i1 [ false, %40 ], [ false, %37 ], [ %55, %48 ]
  br i1 %57, label %58, label %222

58:                                               ; preds = %56
  call void @llvm.lifetime.start.p0(i64 4, ptr %18) #8
  %59 = load i32, ptr %13, align 4, !tbaa !24
  %60 = icmp eq i32 %59, 1
  br i1 %60, label %64, label %61

61:                                               ; preds = %58
  %62 = load i32, ptr %13, align 4, !tbaa !24
  %63 = icmp eq i32 %62, 2
  br i1 %63, label %64, label %68

64:                                               ; preds = %61, %58
  %65 = load ptr, ptr %9, align 8, !tbaa !22
  %66 = getelementptr inbounds nuw %struct.LutContext, ptr %65, i32 0, i32 5
  %67 = load i32, ptr %66, align 4, !tbaa !72
  br label %69

68:                                               ; preds = %61
  br label %69

69:                                               ; preds = %68, %64
  %70 = phi i32 [ %67, %64 ], [ 0, %68 ]
  store i32 %70, ptr %18, align 4, !tbaa !24
  call void @llvm.lifetime.start.p0(i64 4, ptr %19) #8
  %71 = load i32, ptr %13, align 4, !tbaa !24
  %72 = icmp eq i32 %71, 1
  br i1 %72, label %76, label %73

73:                                               ; preds = %69
  %74 = load i32, ptr %13, align 4, !tbaa !24
  %75 = icmp eq i32 %74, 2
  br i1 %75, label %76, label %80

76:                                               ; preds = %73, %69
  %77 = load ptr, ptr %9, align 8, !tbaa !22
  %78 = getelementptr inbounds nuw %struct.LutContext, ptr %77, i32 0, i32 4
  %79 = load i32, ptr %78, align 8, !tbaa !70
  br label %81

80:                                               ; preds = %73
  br label %81

81:                                               ; preds = %80, %76
  %82 = phi i32 [ %79, %76 ], [ 0, %80 ]
  store i32 %82, ptr %19, align 4, !tbaa !24
  call void @llvm.lifetime.start.p0(i64 4, ptr %20) #8
  %83 = load i32, ptr %18, align 4, !tbaa !24
  %84 = call i1 @llvm.is.constant.i32(i32 %83)
  br i1 %84, label %93, label %85

85:                                               ; preds = %81
  %86 = load ptr, ptr %10, align 8, !tbaa !85
  %87 = getelementptr inbounds nuw %struct.thread_data, ptr %86, i32 0, i32 3
  %88 = load i32, ptr %87, align 4, !tbaa !64
  %89 = sub nsw i32 0, %88
  %90 = load i32, ptr %18, align 4, !tbaa !24
  %91 = ashr i32 %89, %90
  %92 = sub nsw i32 0, %91
  br label %103

93:                                               ; preds = %81
  %94 = load ptr, ptr %10, align 8, !tbaa !85
  %95 = getelementptr inbounds nuw %struct.thread_data, ptr %94, i32 0, i32 3
  %96 = load i32, ptr %95, align 4, !tbaa !64
  %97 = load i32, ptr %18, align 4, !tbaa !24
  %98 = shl i32 1, %97
  %99 = add nsw i32 %96, %98
  %100 = sub nsw i32 %99, 1
  %101 = load i32, ptr %18, align 4, !tbaa !24
  %102 = ashr i32 %100, %101
  br label %103

103:                                              ; preds = %93, %85
  %104 = phi i32 [ %92, %85 ], [ %102, %93 ]
  store i32 %104, ptr %20, align 4, !tbaa !24
  call void @llvm.lifetime.start.p0(i64 4, ptr %21) #8
  %105 = load i32, ptr %19, align 4, !tbaa !24
  %106 = call i1 @llvm.is.constant.i32(i32 %105)
  br i1 %106, label %115, label %107

107:                                              ; preds = %103
  %108 = load ptr, ptr %10, align 8, !tbaa !85
  %109 = getelementptr inbounds nuw %struct.thread_data, ptr %108, i32 0, i32 2
  %110 = load i32, ptr %109, align 8, !tbaa !57
  %111 = sub nsw i32 0, %110
  %112 = load i32, ptr %19, align 4, !tbaa !24
  %113 = ashr i32 %111, %112
  %114 = sub nsw i32 0, %113
  br label %125

115:                                              ; preds = %103
  %116 = load ptr, ptr %10, align 8, !tbaa !85
  %117 = getelementptr inbounds nuw %struct.thread_data, ptr %116, i32 0, i32 2
  %118 = load i32, ptr %117, align 8, !tbaa !57
  %119 = load i32, ptr %19, align 4, !tbaa !24
  %120 = shl i32 1, %119
  %121 = add nsw i32 %118, %120
  %122 = sub nsw i32 %121, 1
  %123 = load i32, ptr %19, align 4, !tbaa !24
  %124 = ashr i32 %122, %123
  br label %125

125:                                              ; preds = %115, %107
  %126 = phi i32 [ %114, %107 ], [ %124, %115 ]
  store i32 %126, ptr %21, align 4, !tbaa !24
  call void @llvm.lifetime.start.p0(i64 8, ptr %22) #8
  %127 = load ptr, ptr %9, align 8, !tbaa !22
  %128 = getelementptr inbounds nuw %struct.LutContext, ptr %127, i32 0, i32 1
  %129 = load i32, ptr %13, align 4, !tbaa !24
  %130 = sext i32 %129 to i64
  %131 = getelementptr inbounds [4 x [65536 x i16]], ptr %128, i64 0, i64 %130
  %132 = getelementptr inbounds [65536 x i16], ptr %131, i64 0, i64 0
  store ptr %132, ptr %22, align 8, !tbaa !87
  call void @llvm.lifetime.start.p0(i64 4, ptr %23) #8
  %133 = load i32, ptr %20, align 4, !tbaa !24
  %134 = load i32, ptr %7, align 4, !tbaa !24
  %135 = mul nsw i32 %133, %134
  %136 = load i32, ptr %8, align 4, !tbaa !24
  %137 = sdiv i32 %135, %136
  store i32 %137, ptr %23, align 4, !tbaa !24
  call void @llvm.lifetime.start.p0(i64 4, ptr %24) #8
  %138 = load i32, ptr %20, align 4, !tbaa !24
  %139 = load i32, ptr %7, align 4, !tbaa !24
  %140 = add nsw i32 %139, 1
  %141 = mul nsw i32 %138, %140
  %142 = load i32, ptr %8, align 4, !tbaa !24
  %143 = sdiv i32 %141, %142
  store i32 %143, ptr %24, align 4, !tbaa !24
  call void @llvm.lifetime.start.p0(i64 4, ptr %25) #8
  %144 = load ptr, ptr %14, align 8, !tbaa !39
  %145 = getelementptr inbounds nuw %struct.AVFrame, ptr %144, i32 0, i32 1
  %146 = load i32, ptr %13, align 4, !tbaa !24
  %147 = sext i32 %146 to i64
  %148 = getelementptr inbounds [8 x i32], ptr %145, i64 0, i64 %147
  %149 = load i32, ptr %148, align 4, !tbaa !24
  store i32 %149, ptr %25, align 4, !tbaa !24
  call void @llvm.lifetime.start.p0(i64 4, ptr %26) #8
  %150 = load ptr, ptr %15, align 8, !tbaa !39
  %151 = getelementptr inbounds nuw %struct.AVFrame, ptr %150, i32 0, i32 1
  %152 = load i32, ptr %13, align 4, !tbaa !24
  %153 = sext i32 %152 to i64
  %154 = getelementptr inbounds [8 x i32], ptr %151, i64 0, i64 %153
  %155 = load i32, ptr %154, align 4, !tbaa !24
  store i32 %155, ptr %26, align 4, !tbaa !24
  %156 = load ptr, ptr %14, align 8, !tbaa !39
  %157 = getelementptr inbounds nuw %struct.AVFrame, ptr %156, i32 0, i32 0
  %158 = load i32, ptr %13, align 4, !tbaa !24
  %159 = sext i32 %158 to i64
  %160 = getelementptr inbounds [8 x ptr], ptr %157, i64 0, i64 %159
  %161 = load ptr, ptr %160, align 8, !tbaa !35
  %162 = load i32, ptr %23, align 4, !tbaa !24
  %163 = load i32, ptr %25, align 4, !tbaa !24
  %164 = mul nsw i32 %162, %163
  %165 = sext i32 %164 to i64
  %166 = getelementptr inbounds i8, ptr %161, i64 %165
  store ptr %166, ptr %16, align 8, !tbaa !35
  %167 = load ptr, ptr %15, align 8, !tbaa !39
  %168 = getelementptr inbounds nuw %struct.AVFrame, ptr %167, i32 0, i32 0
  %169 = load i32, ptr %13, align 4, !tbaa !24
  %170 = sext i32 %169 to i64
  %171 = getelementptr inbounds [8 x ptr], ptr %168, i64 0, i64 %170
  %172 = load ptr, ptr %171, align 8, !tbaa !35
  %173 = load i32, ptr %23, align 4, !tbaa !24
  %174 = load i32, ptr %26, align 4, !tbaa !24
  %175 = mul nsw i32 %173, %174
  %176 = sext i32 %175 to i64
  %177 = getelementptr inbounds i8, ptr %172, i64 %176
  store ptr %177, ptr %17, align 8, !tbaa !35
  %178 = load i32, ptr %23, align 4, !tbaa !24
  store i32 %178, ptr %11, align 4, !tbaa !24
  br label %179

179:                                              ; preds = %215, %125
  %180 = load i32, ptr %11, align 4, !tbaa !24
  %181 = load i32, ptr %24, align 4, !tbaa !24
  %182 = icmp slt i32 %180, %181
  br i1 %182, label %183, label %218

183:                                              ; preds = %179
  store i32 0, ptr %12, align 4, !tbaa !24
  br label %184

184:                                              ; preds = %203, %183
  %185 = load i32, ptr %12, align 4, !tbaa !24
  %186 = load i32, ptr %21, align 4, !tbaa !24
  %187 = icmp slt i32 %185, %186
  br i1 %187, label %188, label %206

188:                                              ; preds = %184
  %189 = load ptr, ptr %22, align 8, !tbaa !87
  %190 = load ptr, ptr %16, align 8, !tbaa !35
  %191 = load i32, ptr %12, align 4, !tbaa !24
  %192 = sext i32 %191 to i64
  %193 = getelementptr inbounds i8, ptr %190, i64 %192
  %194 = load i8, ptr %193, align 1, !tbaa !80
  %195 = zext i8 %194 to i64
  %196 = getelementptr inbounds nuw i16, ptr %189, i64 %195
  %197 = load i16, ptr %196, align 2, !tbaa !81
  %198 = trunc i16 %197 to i8
  %199 = load ptr, ptr %17, align 8, !tbaa !35
  %200 = load i32, ptr %12, align 4, !tbaa !24
  %201 = sext i32 %200 to i64
  %202 = getelementptr inbounds i8, ptr %199, i64 %201
  store i8 %198, ptr %202, align 1, !tbaa !80
  br label %203

203:                                              ; preds = %188
  %204 = load i32, ptr %12, align 4, !tbaa !24
  %205 = add nsw i32 %204, 1
  store i32 %205, ptr %12, align 4, !tbaa !24
  br label %184, !llvm.loop !96

206:                                              ; preds = %184
  %207 = load i32, ptr %25, align 4, !tbaa !24
  %208 = load ptr, ptr %16, align 8, !tbaa !35
  %209 = sext i32 %207 to i64
  %210 = getelementptr inbounds i8, ptr %208, i64 %209
  store ptr %210, ptr %16, align 8, !tbaa !35
  %211 = load i32, ptr %26, align 4, !tbaa !24
  %212 = load ptr, ptr %17, align 8, !tbaa !35
  %213 = sext i32 %211 to i64
  %214 = getelementptr inbounds i8, ptr %212, i64 %213
  store ptr %214, ptr %17, align 8, !tbaa !35
  br label %215

215:                                              ; preds = %206
  %216 = load i32, ptr %11, align 4, !tbaa !24
  %217 = add nsw i32 %216, 1
  store i32 %217, ptr %11, align 4, !tbaa !24
  br label %179, !llvm.loop !97

218:                                              ; preds = %179
  call void @llvm.lifetime.end.p0(i64 4, ptr %26) #8
  call void @llvm.lifetime.end.p0(i64 4, ptr %25) #8
  call void @llvm.lifetime.end.p0(i64 4, ptr %24) #8
  call void @llvm.lifetime.end.p0(i64 4, ptr %23) #8
  call void @llvm.lifetime.end.p0(i64 8, ptr %22) #8
  call void @llvm.lifetime.end.p0(i64 4, ptr %21) #8
  call void @llvm.lifetime.end.p0(i64 4, ptr %20) #8
  call void @llvm.lifetime.end.p0(i64 4, ptr %19) #8
  call void @llvm.lifetime.end.p0(i64 4, ptr %18) #8
  br label %219

219:                                              ; preds = %218
  %220 = load i32, ptr %13, align 4, !tbaa !24
  %221 = add nsw i32 %220, 1
  store i32 %221, ptr %13, align 4, !tbaa !24
  br label %37, !llvm.loop !98

222:                                              ; preds = %56
  call void @llvm.lifetime.end.p0(i64 8, ptr %17) #8
  call void @llvm.lifetime.end.p0(i64 8, ptr %16) #8
  call void @llvm.lifetime.end.p0(i64 8, ptr %15) #8
  call void @llvm.lifetime.end.p0(i64 8, ptr %14) #8
  call void @llvm.lifetime.end.p0(i64 4, ptr %13) #8
  call void @llvm.lifetime.end.p0(i64 4, ptr %12) #8
  call void @llvm.lifetime.end.p0(i64 4, ptr %11) #8
  call void @llvm.lifetime.end.p0(i64 8, ptr %10) #8
  call void @llvm.lifetime.end.p0(i64 8, ptr %9) #8
  ret i32 0
}